target datalayout = "e-m:e-p270:32:32-p271:32:32-p272:64:64-i64:64-i128:128-f80:128-n8:16:32:64-S128"
target triple = "x86_64-pc-linux-gnu"

; Function Attrs: nounwind uwtable
define internal i32 @iq1_sort_helper(ptr noundef %0, ptr noundef %1) #0 {
  %3 = alloca ptr, align 8
  %4 = alloca ptr, align 8
  %5 = alloca ptr, align 8
  %6 = alloca ptr, align 8
  store ptr %0, ptr %3, align 8, !tbaa !8
  store ptr %1, ptr %4, align 8, !tbaa !8
  call void @llvm.lifetime.start.p0(i64 8, ptr %5) #10
  %7 = load ptr, ptr %3, align 8, !tbaa !8
  store ptr %7, ptr %5, align 8, !tbaa !3
  call void @llvm.lifetime.start.p0(i64 8, ptr %6) #10
  %8 = load ptr, ptr %4, align 8, !tbaa !8
  store ptr %8, ptr %6, align 8, !tbaa !3
  %9 = load ptr, ptr %5, align 8, !tbaa !3
  %10 = load float, ptr %9, align 4, !tbaa !13
  %11 = load ptr, ptr %6, align 8, !tbaa !3
  %12 = load float, ptr %11, align 4, !tbaa !13
  %13 = fcmp olt float %10, %12
  br i1 %13, label %14, label %15

14:                                               ; preds = %2
  br label %22

15:                                               ; preds = %2
  %16 = load ptr, ptr %5, align 8, !tbaa !3
  %17 = load float, ptr %16, align 4, !tbaa !13
  %18 = load ptr, ptr %6, align 8, !tbaa !3
  %19 = load float, ptr %18, align 4, !tbaa !13
  %20 = fcmp ogt float %17, %19
  %21 = select i1 %20, i32 1, i32 0
  br label %22

22:                                               ; preds = %15, %14
  %23 = phi i32 [ -1, %14 ], [ %21, %15 ]
  call void @llvm.lifetime.end.p0(i64 8, ptr %6) #10
  call void @llvm.lifetime.end.p0(i64 8, ptr %5) #10
  ret i32 %23
}