; Function Attrs: mustprogress nofree norecurse nosync nounwind willreturn memory(argmem: read) uwtable
define internal range(i32 -1, 2) i32 @iq1_sort_helper(ptr noundef readonly captures(none) %0, ptr noundef readonly captures(none) %1) #15 {
  %3 = load float, ptr %0, align 4, !tbaa !8
  %4 = load float, ptr %1, align 4, !tbaa !8
  %5 = fcmp olt float %3, %4
  %6 = fcmp ogt float %3, %4
  %7 = zext i1 %6 to i32
  %8 = select i1 %5, i32 -1, i32 %7
  ret i32 %8
}